target datalayout = "e-m:e-p270:32:32-p271:32:32-p272:64:64-i64:64-i128:128-f80:128-n8:16:32:64-S128"
target triple = "x86_64-pc-linux-gnu"

@.str.4 = private unnamed_addr constant [3 x i8] c"%d\00", align 1

; Function Attrs: null_pointer_is_valid sspstrong uwtable
define ptr @get_conversation_port(ptr noundef %0, i32 noundef %1, i32 noundef %2, i1 noundef zeroext %3) #1 {
  %5 = alloca ptr, align 8
  %6 = alloca ptr, align 8
  %7 = alloca i32, align 4
  %8 = alloca i32, align 4
  %9 = alloca i8, align 1
  store ptr %0, ptr %6, align 8
  store i32 %1, ptr %7, align 4
  store i32 %2, ptr %8, align 4
  %10 = zext i1 %3 to i8
  store i8 %10, ptr %9, align 1
  %11 = load i8, ptr %9, align 1, !range !6, !noundef !7
  %12 = trunc i8 %11 to i1
  br i1 %12, label %14, label %13

13:                                               ; preds = %4
  store i32 0, ptr %8, align 4
  br label %14

14:                                               ; preds = %13, %4
  %15 = load i32, ptr %8, align 4
  switch i32 %15, label %32 [
    i32 2, label %16
    i32 3, label %20
    i32 1, label %24
    i32 4, label %28
  ]

16:                                               ; preds = %14
  %17 = load ptr, ptr %6, align 8
  %18 = load i32, ptr %7, align 4
  %19 = call ptr @tcp_port_to_display(ptr noundef %17, i32 noundef %18)
  store ptr %19, ptr %5, align 8
  br label %36

20:                                               ; preds = %14
  %21 = load ptr, ptr %6, align 8
  %22 = load i32, ptr %7, align 4
  %23 = call ptr @udp_port_to_display(ptr noundef %21, i32 noundef %22)
  store ptr %23, ptr %5, align 8
  br label %36

24:                                               ; preds = %14
  %25 = load ptr, ptr %6, align 8
  %26 = load i32, ptr %7, align 4
  %27 = call ptr @sctp_port_to_display(ptr noundef %25, i32 noundef %26)
  store ptr %27, ptr %5, align 8
  br label %36

28:                                               ; preds = %14
  %29 = load ptr, ptr %6, align 8
  %30 = load i32, ptr %7, align 4
  %31 = call ptr @dccp_port_to_display(ptr noundef %29, i32 noundef %30)
  store ptr %31, ptr %5, align 8
  br label %36

32:                                               ; preds = %14
  %33 = load ptr, ptr %6, align 8
  %34 = load i32, ptr %7, align 4
  %35 = call noalias ptr (ptr, ptr, ...) @wmem_strdup_printf(ptr noundef %33, ptr noundef @.str.4, i32 noundef %34)
  store ptr %35, ptr %5, align 8
  br label %36

36:                                               ; preds = %32, %28, %24, %20, %16
  %37 = load ptr, ptr %5, align 8
  ret ptr %37
}