; Function Attrs: null_pointer_is_valid sspstrong uwtable
define ptr @get_conversation_port(ptr noundef %0, i32 noundef %1, i32 noundef %2, i1 noundef zeroext %3) local_unnamed_addr #1 {
  %spec.select = select i1 %3, i32 %2, i32 0
  switch i32 %spec.select, label %13 [
    i32 2, label %5
    i32 3, label %7
    i32 1, label %9
    i32 4, label %11
  ]

5:                                                ; preds = %4
  %6 = tail call ptr @tcp_port_to_display(ptr noundef %0, i32 noundef %1)
  br label %15

7:                                                ; preds = %4
  %8 = tail call ptr @udp_port_to_display(ptr noundef %0, i32 noundef %1)
  br label %15

9:                                                ; preds = %4
  %10 = tail call ptr @sctp_port_to_display(ptr noundef %0, i32 noundef %1)
  br label %15

11:                                               ; preds = %4
  %12 = tail call ptr @dccp_port_to_display(ptr noundef %0, i32 noundef %1)
  br label %15

13:                                               ; preds = %4
  %14 = tail call noalias ptr (ptr, ptr, ...) @wmem_strdup_printf(ptr noundef %0, ptr noundef nonnull @.str.4, i32 noundef %1)
  br label %15

15:                                               ; preds = %13, %11, %9, %7, %5
  %.0 = phi ptr [ %14, %13 ], [ %12, %11 ], [ %10, %9 ], [ %8, %7 ], [ %6, %5 ]
  ret ptr %.0
}